target datalayout = "e-m:e-p270:32:32-p271:32:32-p272:64:64-i64:64-i128:128-f80:128-n8:16:32:64-S128"
target triple = "x86_64-pc-linux-gnu"

%struct.darktable_t = type { %struct.dt_codepath_t, i32, i32, ptr, ptr, ptr, ptr, ptr, ptr, ptr, ptr, ptr, ptr, ptr, ptr, ptr, ptr, ptr, ptr, ptr, ptr, ptr, ptr, ptr, ptr, ptr, ptr, ptr, ptr, ptr, [64 x %struct.dt_pthread_mutex_t], %struct.dt_pthread_mutex_t, %struct.dt_pthread_mutex_t, %struct.dt_pthread_mutex_t, %struct.dt_pthread_mutex_t, %struct.dt_pthread_mutex_t, ptr, ptr, ptr, ptr, ptr, ptr, ptr, ptr, ptr, ptr, ptr, ptr, ptr, %struct.dt_lua_state_t, ptr, double, ptr, i32, [47 x i32], i32, i32, ptr, ptr, %struct.dt_sys_resources_t, %struct.dt_backthumb_t, %struct.dt_gimp_t }
%struct.dt_codepath_t = type { i8, [3 x i8] }
%struct.dt_pthread_mutex_t = type { %union.pthread_mutex_t }
%union.pthread_mutex_t = type { %struct.__pthread_mutex_s }
%struct.__pthread_mutex_s = type { i32, i32, i32, i32, i32, i16, i16, %struct.__pthread_internal_list }
%struct.__pthread_internal_list = type { ptr, ptr }
%struct.dt_lua_state_t = type { i32 }
%struct.dt_sys_resources_t = type { i64, i64, ptr, ptr, i32 }
%struct.dt_backthumb_t = type { double, double, i32, i32, i32, i32 }
%struct.dt_gimp_t = type { i32, ptr, ptr, i32, i32 }

@darktable = external global %struct.darktable_t, align 8
@.str.71 = private unnamed_addr constant [21 x i8] c"screen_dpi_overwrite\00", align 1
@.str.72 = private unnamed_addr constant [99 x i8] c"[screen resolution] setting the screen resolution to %f dpi as specified in the configuration file\00", align 1
@.str.73 = private unnamed_addr constant [72 x i8] c"[screen resolution] setting the screen resolution to the default 96 dpi\00", align 1
@.str.74 = private unnamed_addr constant [60 x i8] c"[screen resolution] setting the screen resolution to %f dpi\00", align 1

; Function Attrs: nounwind uwtable
define double @dt_get_screen_resolution(ptr noundef %0) #0 {
  %2 = alloca ptr, align 8
  %3 = alloca float, align 4
  store ptr %0, ptr %2, align 8, !tbaa !6
  call void @llvm.lifetime.start.p0(i64 4, ptr %3) #15
  %4 = call reassoc nsz arcp contract afn float @dt_conf_get_float(ptr noundef @.str.71)
  store float %4, ptr %3, align 4, !tbaa !90
  %5 = load float, ptr %3, align 4, !tbaa !90
  %6 = fpext reassoc nsz arcp contract afn float %5 to double
  %7 = fcmp reassoc nsz arcp contract afn ogt double %6, 0.000000e+00
  br i1 %7, label %8, label %28

8:                                                ; preds = %1
  %9 = load ptr, ptr %2, align 8, !tbaa !6
  %10 = call ptr @gtk_widget_get_screen(ptr noundef %9)
  %11 = load float, ptr %3, align 4, !tbaa !90
  %12 = fpext reassoc nsz arcp contract afn float %11 to double
  call void @gdk_screen_set_resolution(ptr noundef %10, double noundef %12)
  br label %13

13:                                               ; preds = %8
  %14 = load i32, ptr getelementptr inbounds nuw (%struct.darktable_t, ptr @darktable, i32 0, i32 2), align 8, !tbaa !113
  %15 = and i32 2, %14
  %16 = icmp ne i32 %15, 0
  br i1 %16, label %17, label %25

17:                                               ; preds = %13
  %18 = load i32, ptr getelementptr inbounds nuw (%struct.darktable_t, ptr @darktable, i32 0, i32 2), align 8, !tbaa !113
  %19 = xor i32 %18, -1
  %20 = and i32 0, %19
  %21 = icmp ne i32 %20, 0
  br i1 %21, label %25, label %22

22:                                               ; preds = %17
  %23 = load float, ptr %3, align 4, !tbaa !90
  %24 = fpext reassoc nsz arcp contract afn float %23 to double
  call void (ptr, ...) @dt_print_ext(ptr noundef @.str.72, double noundef %24)
  br label %25

25:                                               ; preds = %22, %17, %13
  br label %26

26:                                               ; preds = %25
  br label %27

27:                                               ; preds = %26
  br label %69

28:                                               ; preds = %1
  %29 = load ptr, ptr %2, align 8, !tbaa !6
  %30 = call ptr @gtk_widget_get_screen(ptr noundef %29)
  %31 = call reassoc nsz arcp contract afn double @gdk_screen_get_resolution(ptr noundef %30)
  %32 = fptrunc reassoc nsz arcp contract afn double %31 to float
  store float %32, ptr %3, align 4, !tbaa !90
  %33 = load float, ptr %3, align 4, !tbaa !90
  %34 = fpext reassoc nsz arcp contract afn float %33 to double
  %35 = fcmp reassoc nsz arcp contract afn olt double %34, 0.000000e+00
  br i1 %35, label %36, label %52

36:                                               ; preds = %28
  store float 9.600000e+01, ptr %3, align 4, !tbaa !90
  %37 = load ptr, ptr %2, align 8, !tbaa !6
  %38 = call ptr @gtk_widget_get_screen(ptr noundef %37)
  call void @gdk_screen_set_resolution(ptr noundef %38, double noundef 9.600000e+01)
  br label %39

39:                                               ; preds = %36
  %40 = load i32, ptr getelementptr inbounds nuw (%struct.darktable_t, ptr @darktable, i32 0, i32 2), align 8, !tbaa !113
  %41 = and i32 2, %40
  %42 = icmp ne i32 %41, 0
  br i1 %42, label %43, label %49

43:                                               ; preds = %39
  %44 = load i32, ptr getelementptr inbounds nuw (%struct.darktable_t, ptr @darktable, i32 0, i32 2), align 8, !tbaa !113
  %45 = xor i32 %44, -1
  %46 = and i32 0, %45
  %47 = icmp ne i32 %46, 0
  br i1 %47, label %49, label %48

48:                                               ; preds = %43
  call void (ptr, ...) @dt_print_ext(ptr noundef @.str.73)
  br label %49

49:                                               ; preds = %48, %43, %39
  br label %50

50:                                               ; preds = %49
  br label %51

51:                                               ; preds = %50
  br label %68

52:                                               ; preds = %28
  br label %53

53:                                               ; preds = %52
  %54 = load i32, ptr getelementptr inbounds nuw (%struct.darktable_t, ptr @darktable, i32 0, i32 2), align 8, !tbaa !113
  %55 = and i32 2, %54
  %56 = icmp ne i32 %55, 0
  br i1 %56, label %57, label %65

57:                                               ; preds = %53
  %58 = load i32, ptr getelementptr inbounds nuw (%struct.darktable_t, ptr @darktable, i32 0, i32 2), align 8, !tbaa !113
  %59 = xor i32 %58, -1
  %60 = and i32 0, %59
  %61 = icmp ne i32 %60, 0
  br i1 %61, label %65, label %62

62:                                               ; preds = %57
  %63 = load float, ptr %3, align 4, !tbaa !90
  %64 = fpext reassoc nsz arcp contract afn float %63 to double
  call void (ptr, ...) @dt_print_ext(ptr noundef @.str.74, double noundef %64)
  br label %65

65:                                               ; preds = %62, %57, %53
  br label %66

66:                                               ; preds = %65
  br label %67

67:                                               ; preds = %66
  br label %68

68:                                               ; preds = %67, %51
  br label %69

69:                                               ; preds = %68, %27
  %70 = load float, ptr %3, align 4, !tbaa !90
  %71 = fpext reassoc nsz arcp contract afn float %70 to double
  call void @llvm.lifetime.end.p0(i64 4, ptr %3) #15
  ret double %71
}