; Function Attrs: nounwind uwtable
define double @dt_get_screen_resolution(ptr noundef %0) local_unnamed_addr #0 {
  %2 = tail call reassoc nsz arcp contract afn float @dt_conf_get_float(ptr noundef nonnull @.str.71) #18
  %3 = fpext reassoc nsz arcp contract afn float %2 to double
  %4 = fcmp reassoc nsz arcp contract afn ogt float %2, 0.000000e+00
  %5 = tail call ptr @gtk_widget_get_screen(ptr noundef %0) #18
  br i1 %4, label %6, label %10

6:                                                ; preds = %1
  tail call void @gdk_screen_set_resolution(ptr noundef %5, double noundef %3) #18
  %7 = load i32, ptr getelementptr inbounds nuw (i8, ptr @darktable, i64 8), align 8, !tbaa !101
  %8 = and i32 %7, 2
  %.not12 = icmp eq i32 %8, 0
  br i1 %.not12, label %24, label %9

9:                                                ; preds = %6
  tail call void (ptr, ...) @dt_print_ext(ptr noundef nonnull @.str.72, double noundef %3) #18
  br label %24

10:                                               ; preds = %1
  %11 = tail call reassoc nsz arcp contract afn double @gdk_screen_get_resolution(ptr noundef %5) #18
  %12 = fptrunc reassoc nsz arcp contract afn double %11 to float
  %13 = fpext reassoc nsz arcp contract afn float %12 to double
  %14 = fcmp reassoc nsz arcp contract afn olt float %12, 0.000000e+00
  br i1 %14, label %15, label %20

15:                                               ; preds = %10
  %16 = tail call ptr @gtk_widget_get_screen(ptr noundef %0) #18
  tail call void @gdk_screen_set_resolution(ptr noundef %16, double noundef 9.600000e+01) #18
  %17 = load i32, ptr getelementptr inbounds nuw (i8, ptr @darktable, i64 8), align 8, !tbaa !101
  %18 = and i32 %17, 2
  %.not11 = icmp eq i32 %18, 0
  br i1 %.not11, label %24, label %19

19:                                               ; preds = %15
  tail call void (ptr, ...) @dt_print_ext(ptr noundef nonnull @.str.73) #18
  br label %24

20:                                               ; preds = %10
  %21 = load i32, ptr getelementptr inbounds nuw (i8, ptr @darktable, i64 8), align 8, !tbaa !101
  %22 = and i32 %21, 2
  %.not = icmp eq i32 %22, 0
  br i1 %.not, label %24, label %23

23:                                               ; preds = %20
  tail call void (ptr, ...) @dt_print_ext(ptr noundef nonnull @.str.74, double noundef %13) #18
  br label %24

24:                                               ; preds = %19, %15, %23, %20, %6, %9
  %.0 = phi nsz float [ %2, %9 ], [ %2, %6 ], [ 9.600000e+01, %19 ], [ 9.600000e+01, %15 ], [ %12, %23 ], [ %12, %20 ]
  %25 = fpext reassoc nsz arcp contract afn float %.0 to double
  ret double %25
}